; Function Attrs: nounwind sspstrong uwtable
define internal fastcc void @do_atomic_op_i64(ptr noundef %0, ptr noundef %1, ptr noundef %2, i64 noundef %3, i32 noundef %4, ptr noundef readonly captures(none) %5) unnamed_addr #0 {
  %7 = and i32 %4, 224
  %trunc.i.i = trunc nuw i32 %7 to i8
  switch i8 %trunc.i.i, label %10 [
    i8 0, label %memop_alignment_bits.exit.i
    i8 -32, label %8
  ]

8:                                                ; preds = %6
  %9 = and i32 %4, 7
  br label %memop_alignment_bits.exit.i

10:                                               ; preds = %6
  %11 = lshr exact i32 %7, 5
  br label %memop_alignment_bits.exit.i

memop_alignment_bits.exit.i:                      ; preds = %10, %8, %6
  %.0.i.i = phi i32 [ %9, %8 ], [ %11, %10 ], [ 0, %6 ]
  %12 = load i8, ptr @tcg_use_softmmu, align 1, !range !4, !noundef !5
  %13 = trunc nuw i8 %12 to i1
  br i1 %13, label %14, label %check_max_alignment.exit.i

14:                                               ; preds = %memop_alignment_bits.exit.i
  %15 = add nuw nsw i32 %.0.i.i, 5
  %16 = tail call align 8 ptr @llvm.threadlocal.address.p0(ptr align 8 @tcg_ctx)
  %17 = load ptr, ptr %16, align 8
  %18 = getelementptr inbounds nuw i8, ptr %17, i64 68
  %19 = load i8, ptr %18, align 4
  %20 = zext i8 %19 to i32
  %21 = icmp samesign ule i32 %15, %20
  tail call void @llvm.assume(i1 %21)
  br label %check_max_alignment.exit.i

check_max_alignment.exit.i:                       ; preds = %14, %memop_alignment_bits.exit.i
  %22 = and i32 %4, 7
  %23 = icmp eq i32 %.0.i.i, %22
  %24 = or i32 %4, 224
  %spec.select.i = select i1 %23, i32 %24, i32 %4
  %25 = and i32 %spec.select.i, 7
  switch i32 %25, label %30 [
    i32 0, label %26
    i32 1, label %tcg_canonicalize_memop.exit
    i32 2, label %tcg_canonicalize_memop.exit
    i32 3, label %28
  ]

26:                                               ; preds = %check_max_alignment.exit.i
  %27 = and i32 %spec.select.i, -17
  br label %tcg_canonicalize_memop.exit

28:                                               ; preds = %check_max_alignment.exit.i
  %29 = and i32 %spec.select.i, -9
  br label %tcg_canonicalize_memop.exit

30:                                               ; preds = %check_max_alignment.exit.i
  tail call void @g_assertion_message_expr(ptr noundef null, ptr noundef nonnull @.str, i32 noundef 76, ptr noundef nonnull @__func__.tcg_canonicalize_memop, ptr noundef null) #7
  unreachable

tcg_canonicalize_memop.exit:                      ; preds = %check_max_alignment.exit.i, %check_max_alignment.exit.i, %26, %28
  %.1.i = phi i32 [ %29, %28 ], [ %spec.select.i, %check_max_alignment.exit.i ], [ %27, %26 ], [ %spec.select.i, %check_max_alignment.exit.i ]
  %31 = tail call align 8 ptr @llvm.threadlocal.address.p0(ptr align 8 @tcg_ctx)
  %32 = load ptr, ptr %31, align 8
  %33 = getelementptr inbounds nuw i8, ptr %32, i64 112
  %34 = load ptr, ptr %33, align 8
  %35 = getelementptr inbounds nuw i8, ptr %34, i64 20
  %36 = load i32, ptr %35, align 4
  %37 = and i32 %36, 32768
  %.not.i = icmp eq i32 %37, 0
  %38 = and i32 %.1.i, -1793
  %39 = or disjoint i32 %38, 1280
  %.3.i = select i1 %.not.i, i32 %39, i32 %.1.i
  %40 = and i32 %.3.i, 7
  %41 = icmp eq i32 %40, 3
  br i1 %41, label %42, label %79

42:                                               ; preds = %tcg_canonicalize_memop.exit
  %43 = and i32 %.3.i, 19
  %44 = zext nneg i32 %43 to i64
  %45 = getelementptr inbounds nuw ptr, ptr %5, i64 %44
  %46 = load ptr, ptr %45, align 8
  %.not30 = icmp eq ptr %46, null
  br i1 %.not30, label %74, label %47

47:                                               ; preds = %42
  %48 = trunc i64 %3 to i32
  %49 = shl i32 %.3.i, 4
  %50 = and i32 %49, -208
  %51 = or i32 %50, %48
  %52 = getelementptr inbounds nuw i8, ptr %32, i64 60
  %53 = load i32, ptr %52, align 4
  %54 = icmp eq i32 %53, 0
  br i1 %54, label %55, label %62

55:                                               ; preds = %47
  %56 = tail call ptr @tcg_temp_ebb_new_i64() #6
  %57 = load ptr, ptr %31, align 8
  %58 = ptrtoint ptr %1 to i64
  %59 = ptrtoint ptr %57 to i64
  %60 = sub i64 %58, %59
  %61 = inttoptr i64 %60 to ptr
  tail call void @tcg_gen_extu_i32_i64(ptr noundef %56, ptr noundef %61) #6
  br label %maybe_extend_addr64.exit

62:                                               ; preds = %47
  %63 = ptrtoint ptr %1 to i64
  %64 = ptrtoint ptr %32 to i64
  %65 = sub i64 %63, %64
  %66 = inttoptr i64 %65 to ptr
  br label %maybe_extend_addr64.exit

maybe_extend_addr64.exit:                         ; preds = %55, %62
  %.0.i = phi ptr [ %56, %55 ], [ %66, %62 ]
  %67 = load ptr, ptr @tcg_env, align 8
  %68 = tail call ptr @tcg_constant_i32(i32 noundef %51) #6
  tail call void %46(ptr noundef %0, ptr noundef %67, ptr noundef %.0.i, ptr noundef %2, ptr noundef %68) #6
  %69 = load ptr, ptr %31, align 8
  %70 = getelementptr inbounds nuw i8, ptr %69, i64 60
  %71 = load i32, ptr %70, align 4
  %72 = icmp eq i32 %71, 0
  br i1 %72, label %73, label %maybe_free_addr64.exit

73:                                               ; preds = %maybe_extend_addr64.exit
  tail call void @tcg_temp_free_i64(ptr noundef %.0.i) #6
  br label %maybe_free_addr64.exit

74:                                               ; preds = %42
  %75 = load ptr, ptr @tcg_env, align 8
  %76 = load ptr, ptr @helper_info_exit_atomic, align 8
  %77 = ptrtoint ptr %75 to i64
  %78 = getelementptr inbounds nuw i8, ptr %32, i64 %77
  tail call void @tcg_gen_call1(ptr noundef %76, ptr noundef nonnull @helper_info_exit_atomic, ptr noundef null, ptr noundef %78) #6
  tail call void @tcg_gen_movi_i64(ptr noundef %0, i64 noundef 0) #6
  br label %maybe_free_addr64.exit

79:                                               ; preds = %tcg_canonicalize_memop.exit
  %80 = tail call ptr @tcg_temp_ebb_new_i32() #6
  %81 = tail call ptr @tcg_temp_ebb_new_i32() #6
  tail call void @tcg_gen_extrl_i64_i32(ptr noundef %80, ptr noundef %2) #6
  %82 = and i32 %.3.i, -9
  tail call fastcc void @do_atomic_op_i32(ptr noundef %81, ptr noundef %1, ptr noundef %80, i64 noundef %3, i32 noundef %82, ptr noundef %5)
  tail call void @tcg_temp_free_i32(ptr noundef %80) #6
  tail call void @tcg_gen_extu_i32_i64(ptr noundef %0, ptr noundef %81) #6
  tail call void @tcg_temp_free_i32(ptr noundef %81) #6
  %83 = and i32 %.3.i, 8
  %.not = icmp eq i32 %83, 0
  br i1 %.not, label %maybe_free_addr64.exit, label %84

84:                                               ; preds = %79
  tail call void @tcg_gen_ext_i64(ptr noundef %0, ptr noundef %0, i32 noundef %.3.i)
  br label %maybe_free_addr64.exit

maybe_free_addr64.exit:                           ; preds = %73, %maybe_extend_addr64.exit, %79, %84, %74
  ret void
}